; Function Attrs: nofree norecurse nosync nounwind memory(argmem: readwrite) uwtable
define void @ff_line_noise_c(ptr noundef writeonly captures(none) %0, ptr noundef readonly captures(none) %1, ptr noundef readonly captures(none) %2, i32 noundef %3, i32 noundef %4) #0 {
  %6 = sext i32 %4 to i64
  %7 = getelementptr inbounds i8, ptr %2, i64 %6
  %8 = icmp sgt i32 %3, 0
  br i1 %8, label %.lr.ph.preheader, label %._crit_edge

.lr.ph.preheader:                                 ; preds = %5
  %wide.trip.count = zext nneg i32 %3 to i64
  br label %.lr.ph

.lr.ph:                                           ; preds = %.lr.ph.preheader, %.lr.ph
  %indvars.iv = phi i64 [ 0, %.lr.ph.preheader ], [ %indvars.iv.next, %.lr.ph ]
  %9 = getelementptr inbounds nuw i8, ptr %1, i64 %indvars.iv
  %10 = load i8, ptr %9, align 1, !tbaa !4
  %11 = zext i8 %10 to i32
  %12 = getelementptr inbounds nuw i8, ptr %7, i64 %indvars.iv
  %13 = load i8, ptr %12, align 1, !tbaa !4
  %14 = sext i8 %13 to i32
  %15 = add nsw i32 %14, %11
  %.not.i = icmp ult i32 %15, 256
  %isnotneg.i = icmp sgt i32 %15, -1
  %16 = sext i1 %isnotneg.i to i8
  %17 = trunc nuw i32 %15 to i8
  %.0.i = select i1 %.not.i, i8 %17, i8 %16
  %18 = getelementptr inbounds nuw i8, ptr %0, i64 %indvars.iv
  store i8 %.0.i, ptr %18, align 1, !tbaa !4
  %indvars.iv.next = add nuw nsw i64 %indvars.iv, 1
  %exitcond.not = icmp eq i64 %indvars.iv.next, %wide.trip.count
  br i1 %exitcond.not, label %._crit_edge, label %.lr.ph, !llvm.loop !7

._crit_edge:                                      ; preds = %.lr.ph, %5
  ret void
}